; Function Attrs: nounwind uwtable
define ptr @l___private_Lean_Compiler_IR_LiveVars_0__Lean_IR_LiveVars_collectArg(ptr noundef %0, ptr noundef %1) #0 {
  %3 = ptrtoint ptr %0 to i64
  %4 = and i64 %3, 1
  %.not.i10 = icmp eq i64 %4, 0
  br i1 %.not.i10, label %8, label %5

5:                                                ; preds = %2
  %6 = lshr i64 %3, 1
  %7 = trunc i64 %6 to i32
  br label %lean_obj_tag.exit

8:                                                ; preds = %2
  %9 = getelementptr i8, ptr %0, i64 4
  %.val.i = load i32, ptr %9, align 4
  %10 = lshr i32 %.val.i, 24
  br label %lean_obj_tag.exit

lean_obj_tag.exit:                                ; preds = %5, %8
  %.0.i = phi i32 [ %7, %5 ], [ %10, %8 ]
  %11 = icmp eq i32 %.0.i, 0
  br i1 %11, label %12, label %l_Lean_RBNode_insert___at_Lean_IR_mkLiveVarSet___spec__1.exit

12:                                               ; preds = %lean_obj_tag.exit
  %13 = getelementptr inbounds nuw i8, ptr %0, i64 8
  %14 = load ptr, ptr %13, align 8, !tbaa !10
  %15 = ptrtoint ptr %14 to i64
  %16 = and i64 %15, 1
  %.not = icmp eq i64 %16, 0
  br i1 %.not, label %17, label %lean_inc.exit

17:                                               ; preds = %12
  %.val.i11 = load i32, ptr %14, align 4, !tbaa !5
  %18 = icmp sgt i32 %.val.i11, 0
  br i1 %18, label %19, label %21, !prof !14

19:                                               ; preds = %17
  %20 = add nuw i32 %.val.i11, 1
  store i32 %20, ptr %14, align 4, !tbaa !5
  br label %lean_inc.exit

21:                                               ; preds = %17
  %.not.i12 = icmp eq i32 %.val.i11, 0
  br i1 %.not.i12, label %lean_inc.exit, label %22

22:                                               ; preds = %21
  tail call void @lean_inc_ref_cold(ptr noundef nonnull %14) #4
  br label %lean_inc.exit

lean_inc.exit:                                    ; preds = %22, %21, %19, %12
  br i1 %.not.i10, label %23, label %lean_dec.exit

23:                                               ; preds = %lean_inc.exit
  %24 = load i32, ptr %0, align 4, !tbaa !5
  %25 = icmp sgt i32 %24, 1
  br i1 %25, label %26, label %28, !prof !14

26:                                               ; preds = %23
  %27 = add nsw i32 %24, -1
  store i32 %27, ptr %0, align 4, !tbaa !5
  br label %lean_dec.exit

28:                                               ; preds = %23
  %.not.i = icmp eq i32 %24, 0
  br i1 %.not.i, label %lean_dec.exit, label %29

29:                                               ; preds = %28
  tail call void @lean_dec_ref_cold(ptr noundef nonnull %0) #4
  br label %lean_dec.exit

lean_dec.exit:                                    ; preds = %29, %28, %26, %lean_inc.exit
  %30 = tail call zeroext i8 @l_Lean_RBNode_isRed___rarg(ptr noundef %1) #4
  %31 = icmp eq i8 %30, 0
  %32 = tail call ptr @l_Lean_RBNode_ins___at_Lean_IR_mkLiveVarSet___spec__2(ptr noundef %1, ptr noundef %14, ptr noundef nonnull inttoptr (i64 1 to ptr))
  br i1 %31, label %l_Lean_RBNode_insert___at_Lean_IR_mkLiveVarSet___spec__1.exit, label %33

33:                                               ; preds = %lean_dec.exit
  %34 = tail call ptr @l_Lean_RBNode_setBlack___rarg(ptr noundef %32) #4
  br label %l_Lean_RBNode_insert___at_Lean_IR_mkLiveVarSet___spec__1.exit

l_Lean_RBNode_insert___at_Lean_IR_mkLiveVarSet___spec__1.exit: ; preds = %33, %lean_dec.exit, %lean_obj_tag.exit
  %.0 = phi ptr [ %1, %lean_obj_tag.exit ], [ %34, %33 ], [ %32, %lean_dec.exit ]
  ret ptr %.0
}